; Function Attrs: nounwind uwtable
define hidden void @zif_output_add_rewrite_var(ptr noundef readonly captures(none) %0, ptr noundef writeonly captures(none) %1) local_unnamed_addr #0 {
  %3 = alloca ptr, align 8
  %4 = alloca ptr, align 8
  %5 = alloca i64, align 8
  %6 = alloca i64, align 8
  call void @llvm.lifetime.start.p0(i64 8, ptr nonnull %3) #22
  call void @llvm.lifetime.start.p0(i64 8, ptr nonnull %4) #22
  call void @llvm.lifetime.start.p0(i64 8, ptr nonnull %5) #22
  call void @llvm.lifetime.start.p0(i64 8, ptr nonnull %6) #22
  %7 = getelementptr inbounds nuw i8, ptr %0, i64 44
  %8 = load i32, ptr %7, align 4, !tbaa !8
  %9 = call i32 (i32, ptr, ...) @zend_parse_parameters(i32 noundef %8, ptr noundef nonnull @.str.15, ptr noundef nonnull %3, ptr noundef nonnull %5, ptr noundef nonnull %4, ptr noundef nonnull %6) #22
  %10 = icmp eq i32 %9, -1
  br i1 %10, label %11, label %14

11:                                               ; preds = %2
  %12 = load ptr, ptr getelementptr inbounds nuw (i8, ptr @executor_globals, i64 960), align 8, !tbaa !112
  %13 = icmp ne ptr %12, null
  call void @llvm.assume(i1 %13)
  br label %24

14:                                               ; preds = %2
  %15 = load ptr, ptr %3, align 8, !tbaa !84
  %16 = load i64, ptr %5, align 8, !tbaa !87
  %17 = load ptr, ptr %4, align 8, !tbaa !84
  %18 = load i64, ptr %6, align 8, !tbaa !87
  %19 = call i32 @php_url_scanner_add_var(ptr noundef %15, i64 noundef %16, ptr noundef %17, i64 noundef %18, i1 noundef zeroext true) #22
  %20 = icmp eq i32 %19, 0
  %21 = getelementptr inbounds nuw i8, ptr %1, i64 8
  br i1 %20, label %22, label %23

22:                                               ; preds = %14
  store i32 3, ptr %21, align 8, !tbaa !8
  br label %24

23:                                               ; preds = %14
  store i32 2, ptr %21, align 8, !tbaa !8
  br label %24

24:                                               ; preds = %23, %22, %11
  call void @llvm.lifetime.end.p0(i64 8, ptr nonnull %6) #22
  call void @llvm.lifetime.end.p0(i64 8, ptr nonnull %5) #22
  call void @llvm.lifetime.end.p0(i64 8, ptr nonnull %4) #22
  call void @llvm.lifetime.end.p0(i64 8, ptr nonnull %3) #22
  ret void
}